target datalayout = "e-m:e-p270:32:32-p271:32:32-p272:64:64-i64:64-i128:128-f80:128-n8:16:32:64-S128"
target triple = "x86_64-pc-linux-gnu"

@progexit = dso_local global i32 0, align 4
@reload = dso_local global i32 0, align 4
@sighup = dso_local global i32 0, align 4
@syncpipe_wake_recv_w = internal global i32 -1, align 4
@.str = private unnamed_addr constant [1 x i8] zeroinitializer, align 1
@.str.1 = private unnamed_addr constant [29 x i8] c"Failed to write to syncpipe\0A\00", align 1

; Function Attrs: nounwind uwtable
define dso_local void @sighandler_th(i32 noundef %0) #0 {
  %2 = alloca i32, align 4
  %3 = alloca i32, align 4
  store i32 %0, ptr %2, align 4
  store i32 0, ptr %3, align 4
  %4 = load i32, ptr %2, align 4
  switch i32 %4, label %8 [
    i32 2, label %5
    i32 15, label %5
    i32 1, label %6
    i32 12, label %7
  ]

5:                                                ; preds = %1, %1
  store i32 1, ptr @progexit, align 4
  store i32 1, ptr %3, align 4
  br label %9

6:                                                ; preds = %1
  store i32 1, ptr @sighup, align 4
  store i32 1, ptr %3, align 4
  br label %9

7:                                                ; preds = %1
  store i32 1, ptr @reload, align 4
  store i32 1, ptr %3, align 4
  br label %9

8:                                                ; preds = %1
  br label %9

9:                                                ; preds = %8, %7, %6, %5
  %10 = load i32, ptr %3, align 4
  %11 = icmp ne i32 %10, 0
  br i1 %11, label %12, label %22

12:                                               ; preds = %9
  %13 = load i32, ptr @syncpipe_wake_recv_w, align 4
  %14 = icmp ne i32 %13, -1
  br i1 %14, label %15, label %22

15:                                               ; preds = %12
  %16 = load i32, ptr @syncpipe_wake_recv_w, align 4
  %17 = call i64 @write(i32 noundef %16, ptr noundef @.str, i64 noundef 1)
  %18 = icmp ne i64 %17, 1
  br i1 %18, label %19, label %21

19:                                               ; preds = %15
  %20 = call i32 (i32, ptr, ...) @logg(i32 noundef 3, ptr noundef @.str.1)
  br label %21

21:                                               ; preds = %19, %15
  br label %22

22:                                               ; preds = %21, %12, %9
  ret void
}