; Function Attrs: nounwind uwtable
define dso_local void @sighandler_th(i32 noundef %0) #0 {
  switch i32 %0, label %.thread [
    i32 2, label %4
    i32 15, label %4
    i32 1, label %2
    i32 12, label %3
  ]

2:                                                ; preds = %1
  br label %4

3:                                                ; preds = %1
  br label %4

4:                                                ; preds = %1, %1, %3, %2
  %reload.sink = phi ptr [ @reload, %3 ], [ @sighup, %2 ], [ @progexit, %1 ], [ @progexit, %1 ]
  store i32 1, ptr %reload.sink, align 4
  %5 = load i32, ptr @syncpipe_wake_recv_w, align 4
  %.not5 = icmp eq i32 %5, -1
  br i1 %.not5, label %.thread, label %6

6:                                                ; preds = %4
  %7 = tail call i64 @write(i32 noundef %5, ptr noundef nonnull @.str, i64 noundef 1) #15
  %.not = icmp eq i64 %7, 1
  br i1 %.not, label %.thread, label %8

8:                                                ; preds = %6
  %9 = tail call i32 (i32, ptr, ...) @logg(i32 noundef 3, ptr noundef nonnull @.str.1) #15
  br label %.thread

.thread:                                          ; preds = %1, %6, %8, %4
  ret void
}